; ModuleID = '55/803.c'
source_filename = "55/803.c"
target datalayout = "e-m:e-p270:32:32-p271:32:32-p272:64:64-i64:64-f80:128-n8:16:32:64-S128"
target triple = "x86_64-pc-linux-gnu"

@.str = private unnamed_addr constant [9 x i8] c"%d %s %d\00", align 1
@.str.1 = private unnamed_addr constant [2 x i8] c"0\00", align 1
@.str.2 = private unnamed_addr constant [3 x i8] c"%c\00", align 1
@.str.3 = private unnamed_addr constant [2 x i8] c"\0A\00", align 1

; Function Attrs: noinline nounwind uwtable
define dso_local i32 @main() #0 {
  %1 = alloca i32, align 4
  %2 = alloca i32, align 4
  %3 = alloca i32, align 4
  %4 = alloca [100 x i32], align 16
  %5 = alloca [100 x i32], align 16
  %6 = alloca i32, align 4
  %7 = alloca i32, align 4
  %8 = alloca i32, align 4
  %9 = alloca i32, align 4
  %10 = alloca i32, align 4
  %11 = alloca i32, align 4
  %12 = alloca [100 x i8], align 16
  %13 = alloca [100 x i8], align 16
  store i32 0, i32* %1, align 4
  store i32 1, i32* %10, align 4
  store i32 0, i32* %11, align 4
  %14 = getelementptr inbounds [100 x i8], [100 x i8]* %12, i64 0, i64 0
  %15 = call i32 (i8*, ...) @__isoc99_scanf(i8* getelementptr inbounds ([9 x i8], [9 x i8]* @.str, i64 0, i64 0), i32* %2, i8* %14, i32* %3)
  store i32 0, i32* %6, align 4
  br label %16

16:                                               ; preds = %100, %0
  %17 = load i32, i32* %6, align 4
  %18 = sext i32 %17 to i64
  %19 = getelementptr inbounds [100 x i8], [100 x i8]* %12, i64 0, i64 %18
  %20 = load i8, i8* %19, align 1
  %21 = sext i8 %20 to i32
  %22 = icmp ne i32 %21, 0
  br i1 %22, label %23, label %103

23:                                               ; preds = %16
  %24 = load i32, i32* %6, align 4
  %25 = sext i32 %24 to i64
  %26 = getelementptr inbounds [100 x i8], [100 x i8]* %12, i64 0, i64 %25
  %27 = load i8, i8* %26, align 1
  %28 = sext i8 %27 to i32
  %29 = icmp sge i32 %28, 48
  br i1 %29, label %30, label %47

30:                                               ; preds = %23
  %31 = load i32, i32* %6, align 4
  %32 = sext i32 %31 to i64
  %33 = getelementptr inbounds [100 x i8], [100 x i8]* %12, i64 0, i64 %32
  %34 = load i8, i8* %33, align 1
  %35 = sext i8 %34 to i32
  %36 = icmp sle i32 %35, 57
  br i1 %36, label %37, label %47

37:                                               ; preds = %30
  %38 = load i32, i32* %6, align 4
  %39 = sext i32 %38 to i64
  %40 = getelementptr inbounds [100 x i8], [100 x i8]* %12, i64 0, i64 %39
  %41 = load i8, i8* %40, align 1
  %42 = sext i8 %41 to i32
  %43 = sub nsw i32 %42, 48
  %44 = load i32, i32* %6, align 4
  %45 = sext i32 %44 to i64
  %46 = getelementptr inbounds [100 x i32], [100 x i32]* %4, i64 0, i64 %45
  store i32 %43, i32* %46, align 4
  br label %99

47:                                               ; preds = %30, %23
  %48 = load i32, i32* %6, align 4
  %49 = sext i32 %48 to i64
  %50 = getelementptr inbounds [100 x i8], [100 x i8]* %12, i64 0, i64 %49
  %51 = load i8, i8* %50, align 1
  %52 = sext i8 %51 to i32
  %53 = icmp sge i32 %52, 97
  br i1 %53, label %54, label %72

54:                                               ; preds = %47
  %55 = load i32, i32* %6, align 4
  %56 = sext i32 %55 to i64
  %57 = getelementptr inbounds [100 x i8], [100 x i8]* %12, i64 0, i64 %56
  %58 = load i8, i8* %57, align 1
  %59 = sext i8 %58 to i32
  %60 = icmp sle i32 %59, 122
  br i1 %60, label %61, label %72

61:                                               ; preds = %54
  %62 = load i32, i32* %6, align 4
  %63 = sext i32 %62 to i64
  %64 = getelementptr inbounds [100 x i8], [100 x i8]* %12, i64 0, i64 %63
  %65 = load i8, i8* %64, align 1
  %66 = sext i8 %65 to i32
  %67 = sub nsw i32 %66, 97
  %68 = add nsw i32 %67, 10
  %69 = load i32, i32* %6, align 4
  %70 = sext i32 %69 to i64
  %71 = getelementptr inbounds [100 x i32], [100 x i32]* %4, i64 0, i64 %70
  store i32 %68, i32* %71, align 4
  br label %98

72:                                               ; preds = %54, %47
  %73 = load i32, i32* %6, align 4
  %74 = sext i32 %73 to i64
  %75 = getelementptr inbounds [100 x i8], [100 x i8]* %12, i64 0, i64 %74
  %76 = load i8, i8* %75, align 1
  %77 = sext i8 %76 to i32
  %78 = icmp sge i32 %77, 65
  br i1 %78, label %79, label %97

79:                                               ; preds = %72
  %80 = load i32, i32* %6, align 4
  %81 = sext i32 %80 to i64
  %82 = getelementptr inbounds [100 x i8], [100 x i8]* %12, i64 0, i64 %81
  %83 = load i8, i8* %82, align 1
  %84 = sext i8 %83 to i32
  %85 = icmp sle i32 %84, 90
  br i1 %85, label %86, label %97

86:                                               ; preds = %79
  %87 = load i32, i32* %6, align 4
  %88 = sext i32 %87 to i64
  %89 = getelementptr inbounds [100 x i8], [100 x i8]* %12, i64 0, i64 %88
  %90 = load i8, i8* %89, align 1
  %91 = sext i8 %90 to i32
  %92 = sub nsw i32 %91, 65
  %93 = add nsw i32 %92, 10
  %94 = load i32, i32* %6, align 4
  %95 = sext i32 %94 to i64
  %96 = getelementptr inbounds [100 x i32], [100 x i32]* %4, i64 0, i64 %95
  store i32 %93, i32* %96, align 4
  br label %97

97:                                               ; preds = %86, %79, %72
  br label %98

98:                                               ; preds = %97, %61
  br label %99

99:                                               ; preds = %98, %37
  br label %100

100:                                              ; preds = %99
  %101 = load i32, i32* %6, align 4
  %102 = add nsw i32 %101, 1
  store i32 %102, i32* %6, align 4
  br label %16

103:                                              ; preds = %16
  %104 = load i32, i32* %6, align 4
  store i32 %104, i32* %8, align 4
  %105 = load i32, i32* %8, align 4
  %106 = sub nsw i32 %105, 1
  store i32 %106, i32* %6, align 4
  br label %107

107:                                              ; preds = %122, %103
  %108 = load i32, i32* %6, align 4
  %109 = icmp sge i32 %108, 0
  br i1 %109, label %110, label %125

110:                                              ; preds = %107
  %111 = load i32, i32* %11, align 4
  %112 = load i32, i32* %10, align 4
  %113 = load i32, i32* %6, align 4
  %114 = sext i32 %113 to i64
  %115 = getelementptr inbounds [100 x i32], [100 x i32]* %4, i64 0, i64 %114
  %116 = load i32, i32* %115, align 4
  %117 = mul nsw i32 %112, %116
  %118 = add nsw i32 %111, %117
  store i32 %118, i32* %11, align 4
  %119 = load i32, i32* %10, align 4
  %120 = load i32, i32* %2, align 4
  %121 = mul nsw i32 %119, %120
  store i32 %121, i32* %10, align 4
  br label %122

122:                                              ; preds = %110
  %123 = load i32, i32* %6, align 4
  %124 = add nsw i32 %123, -1
  store i32 %124, i32* %6, align 4
  br label %107

125:                                              ; preds = %107
  %126 = load i32, i32* %11, align 4
  %127 = icmp eq i32 %126, 0
  br i1 %127, label %128, label %130

128:                                              ; preds = %125
  %129 = call i32 (i8*, ...) @printf(i8* getelementptr inbounds ([2 x i8], [2 x i8]* @.str.1, i64 0, i64 0))
  br label %207

130:                                              ; preds = %125
  store i32 0, i32* %6, align 4
  br label %131

131:                                              ; preds = %144, %130
  %132 = load i32, i32* %11, align 4
  %133 = icmp ne i32 %132, 0
  br i1 %133, label %134, label %147

134:                                              ; preds = %131
  %135 = load i32, i32* %11, align 4
  %136 = load i32, i32* %3, align 4
  %137 = srem i32 %135, %136
  %138 = load i32, i32* %6, align 4
  %139 = sext i32 %138 to i64
  %140 = getelementptr inbounds [100 x i32], [100 x i32]* %5, i64 0, i64 %139
  store i32 %137, i32* %140, align 4
  %141 = load i32, i32* %11, align 4
  %142 = load i32, i32* %3, align 4
  %143 = sdiv i32 %141, %142
  store i32 %143, i32* %11, align 4
  br label %144

144:                                              ; preds = %134
  %145 = load i32, i32* %6, align 4
  %146 = add nsw i32 %145, 1
  store i32 %146, i32* %6, align 4
  br label %131

147:                                              ; preds = %131
  %148 = load i32, i32* %6, align 4
  store i32 %148, i32* %9, align 4
  store i32 0, i32* %6, align 4
  br label %149

149:                                              ; preds = %187, %147
  %150 = load i32, i32* %6, align 4
  %151 = load i32, i32* %9, align 4
  %152 = icmp slt i32 %150, %151
  br i1 %152, label %153, label %190

153:                                              ; preds = %149
  %154 = load i32, i32* %6, align 4
  %155 = sext i32 %154 to i64
  %156 = getelementptr inbounds [100 x i32], [100 x i32]* %5, i64 0, i64 %155
  %157 = load i32, i32* %156, align 4
  %158 = icmp sge i32 %157, 0
  br i1 %158, label %159, label %175

159:                                              ; preds = %153
  %160 = load i32, i32* %6, align 4
  %161 = sext i32 %160 to i64
  %162 = getelementptr inbounds [100 x i32], [100 x i32]* %5, i64 0, i64 %161
  %163 = load i32, i32* %162, align 4
  %164 = icmp sle i32 %163, 9
  br i1 %164, label %165, label %175

165:                                              ; preds = %159
  %166 = load i32, i32* %6, align 4
  %167 = sext i32 %166 to i64
  %168 = getelementptr inbounds [100 x i32], [100 x i32]* %5, i64 0, i64 %167
  %169 = load i32, i32* %168, align 4
  %170 = add nsw i32 %169, 48
  %171 = trunc i32 %170 to i8
  %172 = load i32, i32* %6, align 4
  %173 = sext i32 %172 to i64
  %174 = getelementptr inbounds [100 x i8], [100 x i8]* %13, i64 0, i64 %173
  store i8 %171, i8* %174, align 1
  br label %186

175:                                              ; preds = %159, %153
  %176 = load i32, i32* %6, align 4
  %177 = sext i32 %176 to i64
  %178 = getelementptr inbounds [100 x i32], [100 x i32]* %5, i64 0, i64 %177
  %179 = load i32, i32* %178, align 4
  %180 = add nsw i32 %179, 65
  %181 = sub nsw i32 %180, 10
  %182 = trunc i32 %181 to i8
  %183 = load i32, i32* %6, align 4
  %184 = sext i32 %183 to i64
  %185 = getelementptr inbounds [100 x i8], [100 x i8]* %13, i64 0, i64 %184
  store i8 %182, i8* %185, align 1
  br label %186

186:                                              ; preds = %175, %165
  br label %187

187:                                              ; preds = %186
  %188 = load i32, i32* %6, align 4
  %189 = add nsw i32 %188, 1
  store i32 %189, i32* %6, align 4
  br label %149

190:                                              ; preds = %149
  %191 = load i32, i32* %9, align 4
  %192 = sub nsw i32 %191, 1
  store i32 %192, i32* %6, align 4
  br label %193

193:                                              ; preds = %203, %190
  %194 = load i32, i32* %6, align 4
  %195 = icmp sge i32 %194, 0
  br i1 %195, label %196, label %206

196:                                              ; preds = %193
  %197 = load i32, i32* %6, align 4
  %198 = sext i32 %197 to i64
  %199 = getelementptr inbounds [100 x i8], [100 x i8]* %13, i64 0, i64 %198
  %200 = load i8, i8* %199, align 1
  %201 = sext i8 %200 to i32
  %202 = call i32 (i8*, ...) @printf(i8* getelementptr inbounds ([3 x i8], [3 x i8]* @.str.2, i64 0, i64 0), i32 %201)
  br label %203

203:                                              ; preds = %196
  %204 = load i32, i32* %6, align 4
  %205 = add nsw i32 %204, -1
  store i32 %205, i32* %6, align 4
  br label %193

206:                                              ; preds = %193
  br label %207

207:                                              ; preds = %206, %128
  %208 = call i32 (i8*, ...) @printf(i8* getelementptr inbounds ([2 x i8], [2 x i8]* @.str.3, i64 0, i64 0))
  %209 = call i32 @getchar()
  %210 = call i32 @getchar()
  %211 = load i32, i32* %1, align 4
  ret i32 %211
}

declare dso_local i32 @__isoc99_scanf(i8*, ...) #1

declare dso_local i32 @printf(i8*, ...) #1

declare dso_local i32 @getchar() #1


!llvm.module.flags = !{!0}
!llvm.ident = !{!1}

!0 = !{i32 1, !"wchar_size", i32 4}
!1 = !{!"clang version 10.0.0-4ubuntu1 "}
